; Function Attrs: nounwind uwtable
define internal range(i32 0, 2) i32 @_gui_preferences_int_reset(ptr readnone captures(none) %0, ptr noundef readonly captures(none) %1, ptr noundef %2) #0 {
  %4 = load i32, ptr %1, align 8, !tbaa !54
  %5 = icmp eq i32 %4, 5
  br i1 %5, label %6, label %12

6:                                                ; preds = %3
  %7 = tail call ptr @gtk_widget_get_name(ptr noundef %2) #12
  %8 = tail call i32 @dt_confgen_get_int(ptr noundef %7, i32 noundef 0) #12
  %9 = tail call i64 @gtk_spin_button_get_type() #13
  %10 = tail call ptr @g_type_check_instance_cast(ptr noundef %2, i64 noundef %9) #12
  %11 = sitofp i32 %8 to double
  tail call void @gtk_spin_button_set_value(ptr noundef %10, double noundef %11) #12
  br label %12

12:                                               ; preds = %3, %6
  %.0 = phi i32 [ 1, %6 ], [ 0, %3 ]
  ret i32 %.0
}